; Function Attrs: mustprogress nofree norecurse nosync nounwind memory(readwrite, inaccessiblemem: none) uwtable
define void @_ZN12t_oriresdata13updateHistoryEv(ptr noundef nonnull align 8 dereferenceable(544) %0) local_unnamed_addr #15 align 2 {
  %2 = getelementptr inbounds i8, ptr %0, i64 4
  %3 = load float, ptr %2, align 4
  %4 = fcmp une float %3, 0.000000e+00
  br i1 %4, label %5, label %.loopexit

5:                                                ; preds = %1
  %6 = getelementptr inbounds i8, ptr %0, i64 12
  %7 = getelementptr inbounds i8, ptr %0, i64 112
  %8 = ptrtoint ptr %6 to i64
  store i64 %8, ptr %7, align 8
  %9 = getelementptr inbounds i8, ptr %0, i64 16
  %10 = load i32, ptr %9, align 8
  %11 = icmp sgt i32 %10, 0
  br i1 %11, label %.preheader.lr.ph, label %.loopexit

.preheader.lr.ph:                                 ; preds = %5
  %12 = getelementptr inbounds i8, ptr %0, i64 208
  %13 = getelementptr inbounds i8, ptr %0, i64 128
  br label %.preheader

.preheader:                                       ; preds = %.preheader.lr.ph, %23
  %indvars.iv12 = phi i64 [ 0, %.preheader.lr.ph ], [ %indvars.iv.next13, %23 ]
  %14 = mul nuw nsw i64 %indvars.iv12, 5
  br label %15

15:                                               ; preds = %.preheader, %15
  %indvars.iv = phi i64 [ 0, %.preheader ], [ %indvars.iv.next, %15 ]
  %16 = load ptr, ptr %12, align 8
  %17 = getelementptr inbounds [5 x float], ptr %16, i64 %indvars.iv12, i64 %indvars.iv
  %18 = load float, ptr %17, align 4
  %19 = load i64, ptr %13, align 8
  %20 = inttoptr i64 %19 to ptr
  %21 = getelementptr float, ptr %20, i64 %indvars.iv
  %22 = getelementptr float, ptr %21, i64 %14
  store float %18, ptr %22, align 4
  %indvars.iv.next = add nuw nsw i64 %indvars.iv, 1
  %exitcond.not = icmp eq i64 %indvars.iv.next, 5
  br i1 %exitcond.not, label %23, label %15, !llvm.loop !55

23:                                               ; preds = %15
  %indvars.iv.next13 = add nuw nsw i64 %indvars.iv12, 1
  %24 = load i32, ptr %9, align 8
  %25 = sext i32 %24 to i64
  %26 = icmp slt i64 %indvars.iv.next13, %25
  br i1 %26, label %.preheader, label %.loopexit, !llvm.loop !56

.loopexit:                                        ; preds = %23, %5, %1
  ret void
}